target datalayout = "e-m:e-p270:32:32-p271:32:32-p272:64:64-i64:64-i128:128-f80:128-n8:16:32:64-S128"
target triple = "x86_64-pc-linux-gnu"

%struct.AVFilterContext = type { ptr, ptr, ptr, ptr, ptr, i32, ptr, ptr, i32, ptr, ptr, i32, i32, ptr, ptr, ptr, ptr, i32, ptr, i32, i32 }
%struct.EvalContext = type { ptr, ptr, i32, %struct.AVChannelLayout, ptr, i32, i32, i32, i64, ptr, ptr, i32, i64, i64, [6 x double], ptr }
%struct.AVChannelLayout = type { i32, i32, %union.anon.1, ptr }
%union.anon.1 = type { i64 }
%struct.AVFilterLink = type { ptr, ptr, ptr, ptr, i32, i32, i32, i32, %struct.AVRational, i32, i32, i32, %struct.AVChannelLayout, %struct.AVRational, ptr, i32, %struct.AVFilterFormatsConfig, %struct.AVFilterFormatsConfig }
%struct.AVRational = type { i32, i32 }
%struct.AVFilterFormatsConfig = type { ptr, ptr, ptr, ptr, ptr }
%struct.AVFrame = type { [8 x ptr], [8 x i32], ptr, i32, i32, i32, i32, i32, %struct.AVRational, i64, i64, %struct.AVRational, i32, ptr, i32, i32, [8 x ptr], ptr, i32, ptr, i32, i32, i32, i32, i32, i32, i32, i64, ptr, i32, ptr, ptr, i64, i64, i64, i64, ptr, %struct.AVChannelLayout, i64 }

; Function Attrs: inlinehint nounwind uwtable
define internal void @ff_outlink_set_status(ptr noundef %0, i32 noundef %1, i64 noundef %2) #8 {
  %4 = alloca ptr, align 8
  %5 = alloca i32, align 4
  %6 = alloca i64, align 8
  store ptr %0, ptr %4, align 8, !tbaa !53
  store i32 %1, ptr %5, align 4, !tbaa !24
  store i64 %2, ptr %6, align 8, !tbaa !62
  %7 = load ptr, ptr %4, align 8, !tbaa !53
  %8 = load i32, ptr %5, align 4, !tbaa !24
  %9 = load i64, ptr %6, align 8, !tbaa !62
  call void @ff_avfilter_link_set_in_status(ptr noundef %7, i32 noundef %8, i64 noundef %9)
  ret void
}

; Function Attrs: nounwind uwtable
define internal i32 @activate(ptr noundef %0) #1 {
  %2 = alloca i32, align 4
  %3 = alloca ptr, align 8
  %4 = alloca ptr, align 8
  %5 = alloca ptr, align 8
  %6 = alloca ptr, align 8
  %7 = alloca i32, align 4
  %8 = alloca i32, align 4
  %9 = alloca i64, align 8
  %10 = alloca i32, align 4
  %11 = alloca i32, align 4
  store ptr %0, ptr %3, align 8, !tbaa !4
  call void @llvm.lifetime.start.p0(i64 8, ptr %4) #9
  %12 = load ptr, ptr %3, align 8, !tbaa !4
  %13 = getelementptr inbounds nuw %struct.AVFilterContext, ptr %12, i32 0, i32 7
  %14 = load ptr, ptr %13, align 8, !tbaa !52
  %15 = getelementptr inbounds ptr, ptr %14, i64 0
  %16 = load ptr, ptr %15, align 8, !tbaa !53
  store ptr %16, ptr %4, align 8, !tbaa !53
  call void @llvm.lifetime.start.p0(i64 8, ptr %5) #9
  %17 = load ptr, ptr %4, align 8, !tbaa !53
  %18 = getelementptr inbounds nuw %struct.AVFilterLink, ptr %17, i32 0, i32 0
  %19 = load ptr, ptr %18, align 8, !tbaa !55
  %20 = getelementptr inbounds nuw %struct.AVFilterContext, ptr %19, i32 0, i32 9
  %21 = load ptr, ptr %20, align 8, !tbaa !9
  store ptr %21, ptr %5, align 8, !tbaa !22
  call void @llvm.lifetime.start.p0(i64 8, ptr %6) #9
  call void @llvm.lifetime.start.p0(i64 4, ptr %7) #9
  call void @llvm.lifetime.start.p0(i64 4, ptr %8) #9
  call void @llvm.lifetime.start.p0(i64 8, ptr %9) #9
  %22 = load ptr, ptr %5, align 8, !tbaa !22
  %23 = getelementptr inbounds nuw %struct.EvalContext, ptr %22, i32 0, i32 13
  %24 = load i64, ptr %23, align 8, !tbaa !37
  %25 = load ptr, ptr %5, align 8, !tbaa !22
  %26 = getelementptr inbounds nuw %struct.EvalContext, ptr %25, i32 0, i32 2
  %27 = load i32, ptr %26, align 8, !tbaa !51
  %28 = sext i32 %27 to i64
  %29 = call i64 @av_rescale(i64 noundef %24, i64 noundef 1000000, i64 noundef %28) #11
  store i64 %29, ptr %9, align 8, !tbaa !62
  call void @llvm.lifetime.start.p0(i64 4, ptr %10) #9
  %30 = load ptr, ptr %4, align 8, !tbaa !53
  %31 = call i32 @ff_outlink_frame_wanted(ptr noundef %30)
  %32 = icmp ne i32 %31, 0
  br i1 %32, label %34, label %33

33:                                               ; preds = %1
  store i32 -1497649742, ptr %2, align 4
  store i32 1, ptr %11, align 4
  br label %198

34:                                               ; preds = %1
  %35 = load ptr, ptr %5, align 8, !tbaa !22
  %36 = getelementptr inbounds nuw %struct.EvalContext, ptr %35, i32 0, i32 12
  %37 = load i64, ptr %36, align 8, !tbaa !63
  %38 = icmp sge i64 %37, 0
  br i1 %38, label %39, label %50

39:                                               ; preds = %34
  %40 = load i64, ptr %9, align 8, !tbaa !62
  %41 = load ptr, ptr %5, align 8, !tbaa !22
  %42 = getelementptr inbounds nuw %struct.EvalContext, ptr %41, i32 0, i32 12
  %43 = load i64, ptr %42, align 8, !tbaa !63
  %44 = icmp sge i64 %40, %43
  br i1 %44, label %45, label %50

45:                                               ; preds = %39
  %46 = load ptr, ptr %4, align 8, !tbaa !53
  %47 = load ptr, ptr %5, align 8, !tbaa !22
  %48 = getelementptr inbounds nuw %struct.EvalContext, ptr %47, i32 0, i32 8
  %49 = load i64, ptr %48, align 8, !tbaa !64
  call void @ff_outlink_set_status(ptr noundef %46, i32 noundef -541478725, i64 noundef %49)
  store i32 0, ptr %2, align 4
  store i32 1, ptr %11, align 4
  br label %198

50:                                               ; preds = %39, %34
  %51 = load ptr, ptr %5, align 8, !tbaa !22
  %52 = getelementptr inbounds nuw %struct.EvalContext, ptr %51, i32 0, i32 12
  %53 = load i64, ptr %52, align 8, !tbaa !63
  %54 = icmp sge i64 %53, 0
  br i1 %54, label %55, label %102

55:                                               ; preds = %50
  %56 = load ptr, ptr %5, align 8, !tbaa !22
  %57 = getelementptr inbounds nuw %struct.EvalContext, ptr %56, i32 0, i32 11
  %58 = load i32, ptr %57, align 8, !tbaa !65
  %59 = sext i32 %58 to i64
  %60 = load ptr, ptr %5, align 8, !tbaa !22
  %61 = getelementptr inbounds nuw %struct.EvalContext, ptr %60, i32 0, i32 12
  %62 = load i64, ptr %61, align 8, !tbaa !63
  %63 = load ptr, ptr %5, align 8, !tbaa !22
  %64 = getelementptr inbounds nuw %struct.EvalContext, ptr %63, i32 0, i32 2
  %65 = load i32, ptr %64, align 8, !tbaa !51
  %66 = sext i32 %65 to i64
  %67 = call i64 @av_rescale(i64 noundef %62, i64 noundef %66, i64 noundef 1000000) #11
  %68 = load ptr, ptr %5, align 8, !tbaa !22
  %69 = getelementptr inbounds nuw %struct.EvalContext, ptr %68, i32 0, i32 8
  %70 = load i64, ptr %69, align 8, !tbaa !64
  %71 = sub nsw i64 %67, %70
  %72 = icmp sgt i64 %59, %71
  br i1 %72, label %73, label %86

73:                                               ; preds = %55
  %74 = load ptr, ptr %5, align 8, !tbaa !22
  %75 = getelementptr inbounds nuw %struct.EvalContext, ptr %74, i32 0, i32 12
  %76 = load i64, ptr %75, align 8, !tbaa !63
  %77 = load ptr, ptr %5, align 8, !tbaa !22
  %78 = getelementptr inbounds nuw %struct.EvalContext, ptr %77, i32 0, i32 2
  %79 = load i32, ptr %78, align 8, !tbaa !51
  %80 = sext i32 %79 to i64
  %81 = call i64 @av_rescale(i64 noundef %76, i64 noundef %80, i64 noundef 1000000) #11
  %82 = load ptr, ptr %5, align 8, !tbaa !22
  %83 = getelementptr inbounds nuw %struct.EvalContext, ptr %82, i32 0, i32 8
  %84 = load i64, ptr %83, align 8, !tbaa !64
  %85 = sub nsw i64 %81, %84
  br label %91

86:                                               ; preds = %55
  %87 = load ptr, ptr %5, align 8, !tbaa !22
  %88 = getelementptr inbounds nuw %struct.EvalContext, ptr %87, i32 0, i32 11
  %89 = load i32, ptr %88, align 8, !tbaa !65
  %90 = sext i32 %89 to i64
  br label %91

91:                                               ; preds = %86, %73
  %92 = phi i64 [ %85, %73 ], [ %90, %86 ]
  %93 = trunc i64 %92 to i32
  store i32 %93, ptr %10, align 4, !tbaa !24
  %94 = load i32, ptr %10, align 4, !tbaa !24
  %95 = icmp ne i32 %94, 0
  br i1 %95, label %101, label %96

96:                                               ; preds = %91
  %97 = load ptr, ptr %4, align 8, !tbaa !53
  %98 = load ptr, ptr %5, align 8, !tbaa !22
  %99 = getelementptr inbounds nuw %struct.EvalContext, ptr %98, i32 0, i32 8
  %100 = load i64, ptr %99, align 8, !tbaa !64
  call void @ff_outlink_set_status(ptr noundef %97, i32 noundef -541478725, i64 noundef %100)
  store i32 0, ptr %2, align 4
  store i32 1, ptr %11, align 4
  br label %198

101:                                              ; preds = %91
  br label %106

102:                                              ; preds = %50
  %103 = load ptr, ptr %5, align 8, !tbaa !22
  %104 = getelementptr inbounds nuw %struct.EvalContext, ptr %103, i32 0, i32 11
  %105 = load i32, ptr %104, align 8, !tbaa !65
  store i32 %105, ptr %10, align 4, !tbaa !24
  br label %106

106:                                              ; preds = %102, %101
  %107 = load ptr, ptr %4, align 8, !tbaa !53
  %108 = load i32, ptr %10, align 4, !tbaa !24
  %109 = call ptr @ff_get_audio_buffer(ptr noundef %107, i32 noundef %108)
  store ptr %109, ptr %6, align 8, !tbaa !66
  %110 = load ptr, ptr %6, align 8, !tbaa !66
  %111 = icmp ne ptr %110, null
  br i1 %111, label %113, label %112

112:                                              ; preds = %106
  store i32 -12, ptr %2, align 4
  store i32 1, ptr %11, align 4
  br label %198

113:                                              ; preds = %106
  store i32 0, ptr %7, align 4, !tbaa !24
  br label %114

114:                                              ; preds = %171, %113
  %115 = load i32, ptr %7, align 4, !tbaa !24
  %116 = load i32, ptr %10, align 4, !tbaa !24
  %117 = icmp slt i32 %115, %116
  br i1 %117, label %118, label %178

118:                                              ; preds = %114
  %119 = load ptr, ptr %5, align 8, !tbaa !22
  %120 = getelementptr inbounds nuw %struct.EvalContext, ptr %119, i32 0, i32 13
  %121 = load i64, ptr %120, align 8, !tbaa !37
  %122 = uitofp i64 %121 to double
  %123 = load ptr, ptr %5, align 8, !tbaa !22
  %124 = getelementptr inbounds nuw %struct.EvalContext, ptr %123, i32 0, i32 14
  %125 = getelementptr inbounds [6 x double], ptr %124, i64 0, i64 1
  store double %122, ptr %125, align 8, !tbaa !68
  %126 = load ptr, ptr %5, align 8, !tbaa !22
  %127 = getelementptr inbounds nuw %struct.EvalContext, ptr %126, i32 0, i32 14
  %128 = getelementptr inbounds [6 x double], ptr %127, i64 0, i64 1
  %129 = load double, ptr %128, align 8, !tbaa !68
  %130 = fmul nsz double %129, 1.000000e+00
  %131 = load ptr, ptr %5, align 8, !tbaa !22
  %132 = getelementptr inbounds nuw %struct.EvalContext, ptr %131, i32 0, i32 2
  %133 = load i32, ptr %132, align 8, !tbaa !51
  %134 = sitofp i32 %133 to double
  %135 = fdiv nsz double %130, %134
  %136 = load ptr, ptr %5, align 8, !tbaa !22
  %137 = getelementptr inbounds nuw %struct.EvalContext, ptr %136, i32 0, i32 14
  %138 = getelementptr inbounds [6 x double], ptr %137, i64 0, i64 4
  store double %135, ptr %138, align 8, !tbaa !68
  store i32 0, ptr %8, align 4, !tbaa !24
  br label %139

139:                                              ; preds = %167, %118
  %140 = load i32, ptr %8, align 4, !tbaa !24
  %141 = load ptr, ptr %5, align 8, !tbaa !22
  %142 = getelementptr inbounds nuw %struct.EvalContext, ptr %141, i32 0, i32 5
  %143 = load i32, ptr %142, align 8, !tbaa !35
  %144 = icmp slt i32 %140, %143
  br i1 %144, label %145, label %170

145:                                              ; preds = %139
  %146 = load ptr, ptr %5, align 8, !tbaa !22
  %147 = getelementptr inbounds nuw %struct.EvalContext, ptr %146, i32 0, i32 9
  %148 = load ptr, ptr %147, align 8, !tbaa !38
  %149 = load i32, ptr %8, align 4, !tbaa !24
  %150 = sext i32 %149 to i64
  %151 = getelementptr inbounds ptr, ptr %148, i64 %150
  %152 = load ptr, ptr %151, align 8, !tbaa !39
  %153 = load ptr, ptr %5, align 8, !tbaa !22
  %154 = getelementptr inbounds nuw %struct.EvalContext, ptr %153, i32 0, i32 14
  %155 = getelementptr inbounds [6 x double], ptr %154, i64 0, i64 0
  %156 = call nsz double @av_expr_eval(ptr noundef %152, ptr noundef %155, ptr noundef null)
  %157 = load ptr, ptr %6, align 8, !tbaa !66
  %158 = getelementptr inbounds nuw %struct.AVFrame, ptr %157, i32 0, i32 2
  %159 = load ptr, ptr %158, align 8, !tbaa !70
  %160 = load i32, ptr %8, align 4, !tbaa !24
  %161 = sext i32 %160 to i64
  %162 = getelementptr inbounds ptr, ptr %159, i64 %161
  %163 = load ptr, ptr %162, align 8, !tbaa !75
  %164 = load i32, ptr %7, align 4, !tbaa !24
  %165 = sext i32 %164 to i64
  %166 = getelementptr inbounds double, ptr %163, i64 %165
  store double %156, ptr %166, align 8, !tbaa !68
  br label %167

167:                                              ; preds = %145
  %168 = load i32, ptr %8, align 4, !tbaa !24
  %169 = add nsw i32 %168, 1
  store i32 %169, ptr %8, align 4, !tbaa !24
  br label %139, !llvm.loop !76

170:                                              ; preds = %139
  br label %171

171:                                              ; preds = %170
  %172 = load i32, ptr %7, align 4, !tbaa !24
  %173 = add nsw i32 %172, 1
  store i32 %173, ptr %7, align 4, !tbaa !24
  %174 = load ptr, ptr %5, align 8, !tbaa !22
  %175 = getelementptr inbounds nuw %struct.EvalContext, ptr %174, i32 0, i32 13
  %176 = load i64, ptr %175, align 8, !tbaa !37
  %177 = add i64 %176, 1
  store i64 %177, ptr %175, align 8, !tbaa !37
  br label %114, !llvm.loop !77

178:                                              ; preds = %114
  %179 = load ptr, ptr %5, align 8, !tbaa !22
  %180 = getelementptr inbounds nuw %struct.EvalContext, ptr %179, i32 0, i32 8
  %181 = load i64, ptr %180, align 8, !tbaa !64
  %182 = load ptr, ptr %6, align 8, !tbaa !66
  %183 = getelementptr inbounds nuw %struct.AVFrame, ptr %182, i32 0, i32 9
  store i64 %181, ptr %183, align 8, !tbaa !78
  %184 = load ptr, ptr %5, align 8, !tbaa !22
  %185 = getelementptr inbounds nuw %struct.EvalContext, ptr %184, i32 0, i32 2
  %186 = load i32, ptr %185, align 8, !tbaa !51
  %187 = load ptr, ptr %6, align 8, !tbaa !66
  %188 = getelementptr inbounds nuw %struct.AVFrame, ptr %187, i32 0, i32 15
  store i32 %186, ptr %188, align 4, !tbaa !79
  %189 = load i32, ptr %10, align 4, !tbaa !24
  %190 = sext i32 %189 to i64
  %191 = load ptr, ptr %5, align 8, !tbaa !22
  %192 = getelementptr inbounds nuw %struct.EvalContext, ptr %191, i32 0, i32 8
  %193 = load i64, ptr %192, align 8, !tbaa !64
  %194 = add nsw i64 %193, %190
  store i64 %194, ptr %192, align 8, !tbaa !64
  %195 = load ptr, ptr %4, align 8, !tbaa !53
  %196 = load ptr, ptr %6, align 8, !tbaa !66
  %197 = call i32 @ff_filter_frame(ptr noundef %195, ptr noundef %196)
  store i32 %197, ptr %2, align 4
  store i32 1, ptr %11, align 4
  br label %198

198:                                              ; preds = %178, %112, %96, %45, %33
  call void @llvm.lifetime.end.p0(i64 4, ptr %10) #9
  call void @llvm.lifetime.end.p0(i64 8, ptr %9) #9
  call void @llvm.lifetime.end.p0(i64 4, ptr %8) #9
  call void @llvm.lifetime.end.p0(i64 4, ptr %7) #9
  call void @llvm.lifetime.end.p0(i64 8, ptr %6) #9
  call void @llvm.lifetime.end.p0(i64 8, ptr %5) #9
  call void @llvm.lifetime.end.p0(i64 8, ptr %4) #9
  %199 = load i32, ptr %2, align 4
  ret i32 %199
}