; Function Attrs: nounwind uwtable
define internal i32 @activate(ptr noundef readonly captures(none) %0) #1 {
  %2 = getelementptr inbounds nuw i8, ptr %0, i64 56
  %3 = load ptr, ptr %2, align 8, !tbaa !45
  %4 = load ptr, ptr %3, align 8, !tbaa !46
  %5 = load ptr, ptr %4, align 8, !tbaa !48
  %6 = getelementptr inbounds nuw i8, ptr %5, i64 72
  %7 = load ptr, ptr %6, align 8, !tbaa !4
  %8 = getelementptr inbounds nuw i8, ptr %7, i64 112
  %9 = load i64, ptr %8, align 8, !tbaa !32
  %10 = getelementptr inbounds nuw i8, ptr %7, i64 16
  %11 = load i32, ptr %10, align 8, !tbaa !44
  %12 = tail call i32 @ff_outlink_frame_wanted(ptr noundef nonnull %4) #11
  %.not = icmp eq i32 %12, 0
  br i1 %.not, label %85, label %13

13:                                               ; preds = %1
  %14 = sext i32 %11 to i64
  %15 = tail call i64 @av_rescale(i64 noundef %9, i64 noundef 1000000, i64 noundef %14) #12
  %16 = getelementptr inbounds nuw i8, ptr %7, i64 104
  %17 = load i64, ptr %16, align 8, !tbaa !56
  %18 = icmp slt i64 %17, 0
  %.not61 = icmp slt i64 %15, %17
  %or.cond = select i1 %18, i1 true, i1 %.not61
  br i1 %or.cond, label %22, label %19

19:                                               ; preds = %13
  %20 = getelementptr inbounds nuw i8, ptr %7, i64 72
  %21 = load i64, ptr %20, align 8, !tbaa !57
  tail call void @ff_avfilter_link_set_in_status(ptr noundef nonnull %4, i32 noundef -541478725, i64 noundef %21) #11
  br label %85

22:                                               ; preds = %13
  %23 = icmp sgt i64 %17, -1
  %24 = getelementptr inbounds nuw i8, ptr %7, i64 96
  %25 = load i32, ptr %24, align 8, !tbaa !58
  br i1 %23, label %26, label %37

26:                                               ; preds = %22
  %27 = sext i32 %25 to i64
  %28 = load i32, ptr %10, align 8, !tbaa !44
  %29 = sext i32 %28 to i64
  %30 = tail call i64 @av_rescale(i64 noundef %17, i64 noundef %29, i64 noundef 1000000) #12
  %31 = getelementptr inbounds nuw i8, ptr %7, i64 72
  %32 = load i64, ptr %31, align 8, !tbaa !57
  %33 = sub nsw i64 %30, %32
  %34 = tail call i64 @llvm.smin.i64(i64 %33, i64 %27)
  %35 = trunc i64 %34 to i32
  %.not62 = icmp eq i32 %35, 0
  br i1 %.not62, label %36, label %37

36:                                               ; preds = %26
  tail call void @ff_avfilter_link_set_in_status(ptr noundef nonnull %4, i32 noundef -541478725, i64 noundef %32) #11
  br label %85

37:                                               ; preds = %22, %26
  %.0 = phi i32 [ %35, %26 ], [ %25, %22 ]
  %38 = tail call ptr @ff_get_audio_buffer(ptr noundef nonnull %4, i32 noundef %.0) #11
  %.not63 = icmp eq ptr %38, null
  br i1 %.not63, label %85, label %.preheader

.preheader:                                       ; preds = %37
  %39 = icmp sgt i32 %.0, 0
  br i1 %39, label %.lr.ph66, label %._crit_edge67

.lr.ph66:                                         ; preds = %.preheader
  %40 = getelementptr inbounds nuw i8, ptr %7, i64 120
  %41 = getelementptr inbounds nuw i8, ptr %7, i64 128
  %42 = getelementptr inbounds nuw i8, ptr %7, i64 152
  %43 = getelementptr inbounds nuw i8, ptr %7, i64 56
  %44 = getelementptr inbounds nuw i8, ptr %7, i64 80
  %45 = getelementptr inbounds nuw i8, ptr %38, i64 96
  %46 = load i32, ptr %43, align 8, !tbaa !30
  %47 = icmp sgt i32 %46, 0
  %.pre = load i64, ptr %8, align 8, !tbaa !32
  br i1 %47, label %.lr.ph66.split.preheader, label %.lr.ph66.split.us

.lr.ph66.split.preheader:                         ; preds = %.lr.ph66
  %wide.trip.count = zext nneg i32 %.0 to i64
  br label %.lr.ph66.split

.lr.ph66.split.us:                                ; preds = %.lr.ph66
  %48 = load i32, ptr %10, align 8, !tbaa !44
  %49 = sitofp i32 %48 to double
  %50 = add nsw i32 %.0, -1
  %51 = zext nneg i32 %50 to i64
  %52 = add i64 %.pre, %51
  %53 = add i64 %52, 1
  %54 = uitofp i64 %52 to double
  %55 = fdiv nsz double %54, %49
  store i64 %53, ptr %8, align 8, !tbaa !32
  store double %54, ptr %41, align 8, !tbaa !59
  store double %55, ptr %42, align 8, !tbaa !59
  br label %._crit_edge67

.lr.ph66.split:                                   ; preds = %.lr.ph66.split.preheader, %._crit_edge
  %56 = phi i32 [ %46, %.lr.ph66.split.preheader ], [ %75, %._crit_edge ]
  %57 = phi i64 [ %.pre, %.lr.ph66.split.preheader ], [ %76, %._crit_edge ]
  %indvars.iv74 = phi i64 [ 0, %.lr.ph66.split.preheader ], [ %indvars.iv.next75, %._crit_edge ]
  %58 = uitofp i64 %57 to double
  store double %58, ptr %41, align 8, !tbaa !59
  %59 = load i32, ptr %10, align 8, !tbaa !44
  %60 = sitofp i32 %59 to double
  %61 = fdiv nsz double %58, %60
  store double %61, ptr %42, align 8, !tbaa !59
  %62 = icmp sgt i32 %56, 0
  br i1 %62, label %.lr.ph, label %._crit_edge

.lr.ph:                                           ; preds = %.lr.ph66.split, %.lr.ph
  %indvars.iv = phi i64 [ %indvars.iv.next, %.lr.ph ], [ 0, %.lr.ph66.split ]
  %63 = load ptr, ptr %44, align 8, !tbaa !33
  %64 = getelementptr inbounds nuw ptr, ptr %63, i64 %indvars.iv
  %65 = load ptr, ptr %64, align 8, !tbaa !34
  %66 = tail call nsz double @av_expr_eval(ptr noundef %65, ptr noundef nonnull %40, ptr noundef null) #11
  %67 = load ptr, ptr %45, align 8, !tbaa !61
  %68 = getelementptr inbounds nuw ptr, ptr %67, i64 %indvars.iv
  %69 = load ptr, ptr %68, align 8, !tbaa !66
  %70 = getelementptr inbounds nuw double, ptr %69, i64 %indvars.iv74
  store double %66, ptr %70, align 8, !tbaa !59
  %indvars.iv.next = add nuw nsw i64 %indvars.iv, 1
  %71 = load i32, ptr %43, align 8, !tbaa !30
  %72 = sext i32 %71 to i64
  %73 = icmp slt i64 %indvars.iv.next, %72
  br i1 %73, label %.lr.ph, label %._crit_edge.loopexit, !llvm.loop !67

._crit_edge.loopexit:                             ; preds = %.lr.ph
  %.pre77 = load i64, ptr %8, align 8, !tbaa !32
  br label %._crit_edge

._crit_edge:                                      ; preds = %._crit_edge.loopexit, %.lr.ph66.split
  %74 = phi i64 [ %.pre77, %._crit_edge.loopexit ], [ %57, %.lr.ph66.split ]
  %75 = phi i32 [ %71, %._crit_edge.loopexit ], [ %56, %.lr.ph66.split ]
  %indvars.iv.next75 = add nuw nsw i64 %indvars.iv74, 1
  %76 = add i64 %74, 1
  store i64 %76, ptr %8, align 8, !tbaa !32
  %exitcond.not = icmp eq i64 %indvars.iv.next75, %wide.trip.count
  br i1 %exitcond.not, label %._crit_edge67, label %.lr.ph66.split, !llvm.loop !68

._crit_edge67:                                    ; preds = %._crit_edge, %.lr.ph66.split.us, %.preheader
  %77 = getelementptr inbounds nuw i8, ptr %7, i64 72
  %78 = load i64, ptr %77, align 8, !tbaa !57
  %79 = getelementptr inbounds nuw i8, ptr %38, i64 136
  store i64 %78, ptr %79, align 8, !tbaa !70
  %80 = load i32, ptr %10, align 8, !tbaa !44
  %81 = getelementptr inbounds nuw i8, ptr %38, i64 180
  store i32 %80, ptr %81, align 4, !tbaa !71
  %82 = sext i32 %.0 to i64
  %83 = add nsw i64 %78, %82
  store i64 %83, ptr %77, align 8, !tbaa !57
  %84 = tail call i32 @ff_filter_frame(ptr noundef nonnull %4, ptr noundef nonnull %38) #11
  br label %85

85:                                               ; preds = %37, %1, %._crit_edge67, %36, %19
  %.052 = phi i32 [ 0, %19 ], [ %84, %._crit_edge67 ], [ 0, %36 ], [ -1497649742, %1 ], [ -12, %37 ]
  ret i32 %.052
}